; Function Attrs: nounwind uwtable
define internal fastcc noalias nonnull ptr @_init_l_Lean_Linter_initFn____x40_Lean_Linter_MissingDocs___hyg_7____closed__6() unnamed_addr #0 {
  %1 = load ptr, ptr @l_Lean_Linter_initFn____x40_Lean_Linter_MissingDocs___hyg_7____closed__4, align 8, !tbaa !4
  %2 = load ptr, ptr @l_Lean_Linter_initFn____x40_Lean_Linter_MissingDocs___hyg_7____closed__5, align 8, !tbaa !4
  tail call void @lean_inc_heartbeat() #5
  %3 = tail call noalias ptr @mi_malloc_small(i64 noundef 32) #5
  %4 = icmp eq ptr %3, null
  br i1 %4, label %5, label %lean_alloc_ctor.exit

5:                                                ; preds = %0
  tail call void @lean_internal_panic_out_of_memory() #6
  unreachable

lean_alloc_ctor.exit:                             ; preds = %0
  %6 = getelementptr inbounds nuw i8, ptr %3, i64 4
  store i32 1, ptr %3, align 4, !tbaa !8
  store i32 196640, ptr %6, align 4
  %7 = getelementptr inbounds nuw i8, ptr %3, i64 8
  store ptr inttoptr (i64 1 to ptr), ptr %7, align 8, !tbaa !4
  %8 = getelementptr inbounds nuw i8, ptr %3, i64 16
  store ptr %1, ptr %8, align 8, !tbaa !4
  %9 = getelementptr inbounds nuw i8, ptr %3, i64 24
  store ptr %2, ptr %9, align 8, !tbaa !4
  ret ptr %3
}